target datalayout = "e-m:e-p270:32:32-p271:32:32-p272:64:64-i64:64-i128:128-f80:128-n8:16:32:64-S128"
target triple = "x86_64-pc-linux-gnu"

; Function Attrs: inlinehint nounwind uwtable
define internal float @clamp_simd(float noundef %0) #2 {
  %2 = alloca float, align 4
  store float %0, ptr %2, align 4, !tbaa !45
  %3 = load float, ptr %2, align 4, !tbaa !45
  %4 = call reassoc nsz arcp contract afn float @llvm.maxnum.f32(float %3, float 0.000000e+00)
  %5 = call reassoc nsz arcp contract afn float @llvm.minnum.f32(float %4, float 1.000000e+00)
  ret float %5
}

; Function Attrs: nounwind uwtable
define internal void @_blend_softlight(ptr noundef %0, ptr noundef %1, ptr noundef %2, ptr noalias noundef %3, i64 noundef %4) #0 {
  %6 = alloca ptr, align 8
  %7 = alloca ptr, align 8
  %8 = alloca ptr, align 8
  %9 = alloca ptr, align 8
  %10 = alloca i64, align 8
  %11 = alloca i64, align 8
  %12 = alloca i64, align 8
  %13 = alloca i32, align 4
  %14 = alloca float, align 4
  %15 = alloca float, align 4
  %16 = alloca i32, align 4
  %17 = alloca float, align 4
  %18 = alloca float, align 4
  store ptr %0, ptr %6, align 8, !tbaa !11
  store ptr %1, ptr %7, align 8, !tbaa !11
  store ptr %2, ptr %8, align 8, !tbaa !11
  store ptr %3, ptr %9, align 8, !tbaa !11
  store i64 %4, ptr %10, align 8, !tbaa !43
  call void @llvm.lifetime.start.p0(i64 8, ptr %11) #8
  store i64 0, ptr %11, align 8, !tbaa !43
  call void @llvm.lifetime.start.p0(i64 8, ptr %12) #8
  store i64 0, ptr %12, align 8, !tbaa !43
  br label %19

19:                                               ; preds = %93, %5
  %20 = load i64, ptr %11, align 8, !tbaa !43
  %21 = load i64, ptr %10, align 8, !tbaa !43
  %22 = icmp ult i64 %20, %21
  br i1 %22, label %24, label %23

23:                                               ; preds = %19
  store i32 2, ptr %13, align 4
  call void @llvm.lifetime.end.p0(i64 8, ptr %12) #8
  call void @llvm.lifetime.end.p0(i64 8, ptr %11) #8
  br label %98

24:                                               ; preds = %19
  call void @llvm.lifetime.start.p0(i64 4, ptr %14) #8
  %25 = load ptr, ptr %9, align 8, !tbaa !11
  %26 = load i64, ptr %11, align 8, !tbaa !43
  %27 = getelementptr inbounds nuw float, ptr %25, i64 %26
  %28 = load float, ptr %27, align 4, !tbaa !45
  store float %28, ptr %14, align 4, !tbaa !45
  call void @llvm.lifetime.start.p0(i64 4, ptr %15) #8
  %29 = load float, ptr %14, align 4, !tbaa !45
  %30 = load float, ptr %14, align 4, !tbaa !45
  %31 = fmul reassoc nsz arcp contract afn float %29, %30
  store float %31, ptr %15, align 4, !tbaa !45
  call void @llvm.lifetime.start.p0(i64 4, ptr %16) #8
  store i32 0, ptr %16, align 4, !tbaa !36
  br label %32

32:                                               ; preds = %84, %24
  %33 = load i32, ptr %16, align 4, !tbaa !36
  %34 = icmp slt i32 %33, 3
  br i1 %34, label %36, label %35

35:                                               ; preds = %32
  store i32 5, ptr %13, align 4
  call void @llvm.lifetime.end.p0(i64 4, ptr %16) #8
  br label %87

36:                                               ; preds = %32
  call void @llvm.lifetime.start.p0(i64 4, ptr %17) #8
  %37 = load ptr, ptr %6, align 8, !tbaa !11
  %38 = load i64, ptr %12, align 8, !tbaa !43
  %39 = load i32, ptr %16, align 4, !tbaa !36
  %40 = sext i32 %39 to i64
  %41 = add i64 %38, %40
  %42 = getelementptr inbounds nuw float, ptr %37, i64 %41
  %43 = load float, ptr %42, align 4, !tbaa !45
  %44 = call reassoc nsz arcp contract afn float @clamp_simd(float noundef %43)
  store float %44, ptr %17, align 4, !tbaa !45
  call void @llvm.lifetime.start.p0(i64 4, ptr %18) #8
  %45 = load ptr, ptr %7, align 8, !tbaa !11
  %46 = load i64, ptr %12, align 8, !tbaa !43
  %47 = load i32, ptr %16, align 4, !tbaa !36
  %48 = sext i32 %47 to i64
  %49 = add i64 %46, %48
  %50 = getelementptr inbounds nuw float, ptr %45, i64 %49
  %51 = load float, ptr %50, align 4, !tbaa !45
  %52 = call reassoc nsz arcp contract afn float @clamp_simd(float noundef %51)
  store float %52, ptr %18, align 4, !tbaa !45
  %53 = load float, ptr %17, align 4, !tbaa !45
  %54 = load float, ptr %15, align 4, !tbaa !45
  %55 = fsub reassoc nsz arcp contract afn float 1.000000e+00, %54
  %56 = fmul reassoc nsz arcp contract afn float %53, %55
  %57 = load float, ptr %18, align 4, !tbaa !45
  %58 = fcmp reassoc nsz arcp contract afn ogt float %57, 5.000000e-01
  br i1 %58, label %59, label %67

59:                                               ; preds = %36
  %60 = load float, ptr %17, align 4, !tbaa !45
  %61 = fsub reassoc nsz arcp contract afn float 1.000000e+00, %60
  %62 = load float, ptr %18, align 4, !tbaa !45
  %63 = fsub reassoc nsz arcp contract afn float %62, 5.000000e-01
  %64 = fsub reassoc nsz arcp contract afn float 1.000000e+00, %63
  %65 = fmul reassoc nsz arcp contract afn float %61, %64
  %66 = fsub reassoc nsz arcp contract afn float 1.000000e+00, %65
  br label %72

67:                                               ; preds = %36
  %68 = load float, ptr %17, align 4, !tbaa !45
  %69 = load float, ptr %18, align 4, !tbaa !45
  %70 = fadd reassoc nsz arcp contract afn float %69, 5.000000e-01
  %71 = fmul reassoc nsz arcp contract afn float %68, %70
  br label %72

72:                                               ; preds = %67, %59
  %73 = phi reassoc nsz arcp contract afn float [ %66, %59 ], [ %71, %67 ]
  %74 = load float, ptr %15, align 4, !tbaa !45
  %75 = fmul reassoc nsz arcp contract afn float %73, %74
  %76 = fadd reassoc nsz arcp contract afn float %56, %75
  %77 = call reassoc nsz arcp contract afn float @clamp_simd(float noundef %76)
  %78 = load ptr, ptr %8, align 8, !tbaa !11
  %79 = load i64, ptr %12, align 8, !tbaa !43
  %80 = load i32, ptr %16, align 4, !tbaa !36
  %81 = sext i32 %80 to i64
  %82 = add i64 %79, %81
  %83 = getelementptr inbounds nuw float, ptr %78, i64 %82
  store float %77, ptr %83, align 4, !tbaa !45
  call void @llvm.lifetime.end.p0(i64 4, ptr %18) #8
  call void @llvm.lifetime.end.p0(i64 4, ptr %17) #8
  br label %84

84:                                               ; preds = %72
  %85 = load i32, ptr %16, align 4, !tbaa !36
  %86 = add nsw i32 %85, 1
  store i32 %86, ptr %16, align 4, !tbaa !36
  br label %32

87:                                               ; preds = %35
  %88 = load float, ptr %14, align 4, !tbaa !45
  %89 = load ptr, ptr %8, align 8, !tbaa !11
  %90 = load i64, ptr %12, align 8, !tbaa !43
  %91 = add i64 %90, 3
  %92 = getelementptr inbounds nuw float, ptr %89, i64 %91
  store float %88, ptr %92, align 4, !tbaa !45
  call void @llvm.lifetime.end.p0(i64 4, ptr %15) #8
  call void @llvm.lifetime.end.p0(i64 4, ptr %14) #8
  br label %93

93:                                               ; preds = %87
  %94 = load i64, ptr %11, align 8, !tbaa !43
  %95 = add i64 %94, 1
  store i64 %95, ptr %11, align 8, !tbaa !43
  %96 = load i64, ptr %12, align 8, !tbaa !43
  %97 = add i64 %96, 4
  store i64 %97, ptr %12, align 8, !tbaa !43
  br label %19

98:                                               ; preds = %23
  ret void
}